; Function Attrs: mustprogress uwtable
define void @_ZN10open_spiel18UniformStatePolicyERKNS_5StateEi(ptr dead_on_unwind noalias nocapture writable sret(%"class.std::vector") align 8 %0, ptr noundef nonnull align 8 dereferenceable(60) %1, i32 noundef %2) local_unnamed_addr #3 personality ptr @__gxx_personality_v0 {
  %4 = alloca %"class.std::vector.1", align 8
  %5 = load ptr, ptr %1, align 8
  %6 = getelementptr inbounds i8, ptr %5, i64 40
  %7 = load ptr, ptr %6, align 8
  call void %7(ptr dead_on_unwind nonnull writable sret(%"class.std::vector.1") align 8 %4, ptr noundef nonnull align 8 dereferenceable(60) %1, i32 noundef %2)
  invoke void @_ZN10open_spiel18UniformStatePolicyERKSt6vectorIlSaIlEE(ptr dead_on_unwind writable sret(%"class.std::vector") align 8 %0, ptr noundef nonnull align 8 dereferenceable(24) %4)
          to label %8 unwind label %16

8:                                                ; preds = %3
  %9 = load ptr, ptr %4, align 8
  %.not.i.i.i = icmp eq ptr %9, null
  br i1 %.not.i.i.i, label %_ZNSt6vectorIlSaIlEED2Ev.exit, label %10

10:                                               ; preds = %8
  %11 = getelementptr inbounds nuw i8, ptr %4, i64 16
  %12 = load ptr, ptr %11, align 8
  %13 = ptrtoint ptr %12 to i64
  %14 = ptrtoint ptr %9 to i64
  %15 = sub i64 %13, %14
  call void @_ZdlPvm(ptr noundef nonnull %9, i64 noundef %15) #25
  br label %_ZNSt6vectorIlSaIlEED2Ev.exit

_ZNSt6vectorIlSaIlEED2Ev.exit:                    ; preds = %8, %10
  ret void

16:                                               ; preds = %3
  %17 = landingpad { ptr, i32 }
          cleanup
  %18 = load ptr, ptr %4, align 8
  %.not.i.i.i3 = icmp eq ptr %18, null
  br i1 %.not.i.i.i3, label %_ZNSt6vectorIlSaIlEED2Ev.exit4, label %19

19:                                               ; preds = %16
  %20 = getelementptr inbounds nuw i8, ptr %4, i64 16
  %21 = load ptr, ptr %20, align 8
  %22 = ptrtoint ptr %21 to i64
  %23 = ptrtoint ptr %18 to i64
  %24 = sub i64 %22, %23
  call void @_ZdlPvm(ptr noundef nonnull %18, i64 noundef %24) #25
  br label %_ZNSt6vectorIlSaIlEED2Ev.exit4

_ZNSt6vectorIlSaIlEED2Ev.exit4:                   ; preds = %16, %19
  resume { ptr, i32 } %17
}